Certificate:
    Data:
        Version: 1 (0x0)
        Serial Number: 1 (0x1)
    Signature Algorithm: md5WithRSAEncryption
        Issuer: O=a, OU=a/emailAddress=a, L=a, ST=a, C=aa, CN=localhost
        Validity
            Not Before: Aug 26 07:54:00 2017 GMT
            Not After : Aug 17 07:54:00 2018 GMT
        Subject: C=aa, ST=a, O=a, OU=a, CN=localhost
        Subject Public Key Info:
            Public Key Algorithm: rsaEncryption
                Public-Key: (1024 bit)
                Modulus:
                    00:d6:1e:48:9e:cb:c6:54:d3:fc:c3:85:c8:71:af:
                    b8:18:0b:b3:63:cf:08:e6:f1:54:36:67:aa:2b:60:
                    30:20:b7:d2:66:19:61:97:27:41:2b:21:f3:48:44:
                    90:86:84:57:96:bf:a9:71:76:eb:fa:c5:95:5e:7d:
                    56:f2:7a:e3:46:0e:da:44:99:7c:d0:ad:6d:b2:e0:
                    02:be:97:d7:ed:94:2e:38:f0:05:80:2a:3d:07:20:
                    fa:b5:a7:ae:13:83:76:1c:d4:6e:e3:7d:2e:b5:33:
                    4e:37:a6:0c:65:eb:4b:64:8f:f2:e8:67:6c:bf:82:
                    fa:7c:77:81:f4:33:73:d0:37
                Exponent: 65537 (0x10001)
    Signature Algorithm: md5WithRSAEncryption
         5d:d7:2b:cb:00:19:a7:14:4e:c4:fa:b4:5e:ae:db:e1:99:02:
         cc:34:0a:b2:14:57:17:33:42:3f:41:57:33:f2:d9:f6:87:3d:
         10:81:56:d1:03:6d:21:3a:e4:92:96:bd:60:07:32:b2:3c:86:
         4c:83:c1:a9:8b:22:78:74:68:71:b2:aa:3e:a6:dc:b0:e6:d2:
         09:c3:60:c5:9a:5f:e7:f6:18:cf:74:bb:0f:f5:de:58:93:45:
         3d:bc:4e:c9:1e:f0:68:3c:96:d5:f7:78:f4:b4:c8:6a:5a:9e:
         71:20:e6:e7:4a:5f:2a:1f:db:a3:78:db:91:04:07:47:b7:1e:
         8d:81
-----BEGIN CERTIFICATE-----
MIICFzCCAYACAQEwDQYJKoZIhvcNAQEEBQAwYzEKMAgGA1UEChMBYTEKMAgGA1UE
CxMBYTEQMA4GCSqGSIb3DQEJARYBYTEKMAgGA1UEBxMBYTEKMAgGA1UECBMBYTEL
MAkGA1UEBhMCYWExEjAQBgNVBAMTCWxvY2FsaG9zdDAeFw0xNzA4MjYwNzU0MDBa
Fw0xODA4MTcwNzU0MDBaMEUxCzAJBgNVBAYTAmFhMQowCAYDVQQIEwFhMQowCAYD
VQQKEwFhMQowCAYDVQQLEwFhMRIwEAYDVQQDEwlsb2NhbGhvc3QwgZ8wDQYJKoZI
hvcNAQEBBQADgY0AMIGJAoGBANYeSJ7LxlTT/MOFyHGvuBgLs2PPCObxVDZnqitg
MCC30mYZYZcnQSsh80hEkIaEV5a/qXF26/rFlV59VvJ640YO2kSZfNCtbbLgAr6X
1+2ULjjwBYAqPQcg+rWnrhODdhzUbuN9LrUzTjemDGXrS2SP8uhnbL+C+nx3gfQz
c9A3AgMBAAEwDQYJKoZIhvcNAQEEBQADgYEAXdcrywAZpxROxPq0Xq7b4ZkCzDQK
shRXFzNCP0FXM/LZ9oc9EIFW0QNtITrkkpa9YAcysjyGTIPBqYsieHRocbKqPqbc
sObSCcNgxZpf5/YYz3S7D/XeWJNFPbxOyR7waDyW1fd49LTIalqecSDm50pfKh/b
o3jbkQQHR7cejYE=
-----END CERTIFICATE-----
